target datalayout = "e-m:e-p270:32:32-p271:32:32-p272:64:64-i64:64-i128:128-f80:128-n8:16:32:64-S128"
target triple = "x86_64-pc-linux-gnu"

; Function Attrs: nounwind uwtable
define internal i32 @hashtable_compare_unicode(ptr noundef %0, ptr noundef %1) #0 {
  %3 = alloca i32, align 4
  %4 = alloca ptr, align 8
  %5 = alloca ptr, align 8
  %6 = alloca ptr, align 8
  %7 = alloca ptr, align 8
  %8 = alloca i32, align 4
  store ptr %0, ptr %4, align 8, !tbaa !190
  store ptr %1, ptr %5, align 8, !tbaa !190
  call void @llvm.lifetime.start.p0(i64 8, ptr %6) #11
  %9 = load ptr, ptr %4, align 8, !tbaa !190
  store ptr %9, ptr %6, align 8, !tbaa !191
  call void @llvm.lifetime.start.p0(i64 8, ptr %7) #11
  %10 = load ptr, ptr %5, align 8, !tbaa !190
  store ptr %10, ptr %7, align 8, !tbaa !191
  %11 = load ptr, ptr %6, align 8, !tbaa !191
  %12 = icmp ne ptr %11, null
  br i1 %12, label %13, label %22

13:                                               ; preds = %2
  %14 = load ptr, ptr %7, align 8, !tbaa !191
  %15 = icmp ne ptr %14, null
  br i1 %15, label %16, label %22

16:                                               ; preds = %13
  %17 = load ptr, ptr %6, align 8, !tbaa !191
  %18 = load ptr, ptr %7, align 8, !tbaa !191
  %19 = call i32 @PyUnicode_Compare(ptr noundef %17, ptr noundef %18)
  %20 = icmp eq i32 %19, 0
  %21 = zext i1 %20 to i32
  store i32 %21, ptr %3, align 4
  store i32 1, ptr %8, align 4
  br label %27

22:                                               ; preds = %13, %2
  %23 = load ptr, ptr %6, align 8, !tbaa !191
  %24 = load ptr, ptr %7, align 8, !tbaa !191
  %25 = icmp eq ptr %23, %24
  %26 = zext i1 %25 to i32
  store i32 %26, ptr %3, align 4
  store i32 1, ptr %8, align 4
  br label %27

27:                                               ; preds = %22, %16
  call void @llvm.lifetime.end.p0(i64 8, ptr %7) #11
  call void @llvm.lifetime.end.p0(i64 8, ptr %6) #11
  %28 = load i32, ptr %3, align 4
  ret i32 %28
}