; Function Attrs: nounwind uwtable
define internal range(i32 0, 2) i32 @hashtable_compare_unicode(ptr noundef %0, ptr noundef %1) #0 {
  %3 = icmp ne ptr %0, null
  %4 = icmp ne ptr %1, null
  %or.cond = and i1 %3, %4
  br i1 %or.cond, label %5, label %8

5:                                                ; preds = %2
  %6 = tail call i32 @PyUnicode_Compare(ptr noundef nonnull %0, ptr noundef nonnull %1) #14
  %7 = icmp eq i32 %6, 0
  br label %10

8:                                                ; preds = %2
  %9 = icmp eq ptr %0, %1
  br label %10

10:                                               ; preds = %8, %5
  %.0.in = phi i1 [ %7, %5 ], [ %9, %8 ]
  %.0 = zext i1 %.0.in to i32
  ret i32 %.0
}